; Function Attrs: mustprogress nounwind uwtable
define internal void @"_ZN4absl12lts_2023080222internal_any_invocable22LocalManagerNontrivialIZL39maybe_reset_keepalive_ping_timer_lockedP21grpc_chttp2_transportE3$_0EEvNS1_14FunctionToCallEPNS1_15TypeErasedStateES8_"(i1 noundef zeroext %operation, ptr nocapture noundef %from, ptr nocapture noundef writeonly %to) #6 personality ptr @__gxx_personality_v0 {
entry:
  br i1 %operation, label %sw.bb1, label %sw.bb1.thread

sw.bb1.thread:                                    ; preds = %entry
  store ptr null, ptr %to, align 8
  %0 = load ptr, ptr %from, align 8
  store ptr %0, ptr %to, align 8
  store ptr null, ptr %from, align 8
  br label %"_ZZL39maybe_reset_keepalive_ping_timer_lockedP21grpc_chttp2_transportEN3$_0D2Ev.exit"

sw.bb1:                                           ; preds = %entry
  %call.val.pr = load ptr, ptr %from, align 8
  %cmp.not.i.i = icmp eq ptr %call.val.pr, null
  br i1 %cmp.not.i.i, label %"_ZZL39maybe_reset_keepalive_ping_timer_lockedP21grpc_chttp2_transportEN3$_0D2Ev.exit", label %if.then.i.i

if.then.i.i:                                      ; preds = %sw.bb1
  %add.ptr.i.i = getelementptr inbounds i8, ptr %call.val.pr, i64 16
  %1 = atomicrmw sub ptr %add.ptr.i.i, i64 1 acq_rel, align 8
  %cmp.i.i.i.i = icmp eq i64 %1, 1
  br i1 %cmp.i.i.i.i, label %if.then.i.i.i, label %"_ZZL39maybe_reset_keepalive_ping_timer_lockedP21grpc_chttp2_transportEN3$_0D2Ev.exit"

if.then.i.i.i:                                    ; preds = %if.then.i.i
  tail call void @_ZN21grpc_chttp2_transportD1Ev(ptr noundef nonnull align 8 dereferenceable(3384) %call.val.pr) #34
  tail call void @_ZdlPv(ptr noundef nonnull %call.val.pr) #35
  br label %"_ZZL39maybe_reset_keepalive_ping_timer_lockedP21grpc_chttp2_transportEN3$_0D2Ev.exit"

"_ZZL39maybe_reset_keepalive_ping_timer_lockedP21grpc_chttp2_transportEN3$_0D2Ev.exit": ; preds = %sw.bb1.thread, %sw.bb1, %if.then.i.i, %if.then.i.i.i
  ret void
}